target datalayout = "e-m:e-p270:32:32-p271:32:32-p272:64:64-i64:64-i128:128-f80:128-n8:16:32:64-S128"
target triple = "x86_64-pc-linux-gnu"

%struct._object = type { %union.anon, ptr }
%union.anon = type { i64 }

@.str = private unnamed_addr constant [21 x i8] c"pyfile_newstdprinter\00", align 1
@_testcapi_pyfile_newstdprinter__doc__ = internal constant [42 x i8] c"pyfile_newstdprinter($module, fd, /)\0A--\0A\0A\00", align 16
@.str.1 = private unnamed_addr constant [9 x i8] c"py_fopen\00", align 1
@_testcapi_py_fopen__doc__ = internal constant [101 x i8] c"py_fopen($module, path, mode, /)\0A--\0A\0ACall Py_fopen(), fread(256) and Py_fclose(). Return read bytes.\00", align 16
@test_methods = internal global [3 x { ptr, ptr, i32, [4 x i8], ptr }] [{ ptr, ptr, i32, [4 x i8], ptr } { ptr @.str, ptr @_testcapi_pyfile_newstdprinter, i32 8, [4 x i8] zeroinitializer, ptr @_testcapi_pyfile_newstdprinter__doc__ }, { ptr, ptr, i32, [4 x i8], ptr } { ptr @.str.1, ptr @_testcapi_py_fopen, i32 128, [4 x i8] zeroinitializer, ptr @_testcapi_py_fopen__doc__ }, { ptr, ptr, i32, [4 x i8], ptr } zeroinitializer], align 16
@.str.3 = private unnamed_addr constant [13 x i8] c"Oz#:py_fopen\00", align 1
@_Py_NoneStruct = external global %struct._object, align 8

; Function Attrs: nounwind uwtable
define hidden i32 @_PyTestCapi_Init_File(ptr noundef %0) #0 {
  %2 = alloca ptr, align 8
  store ptr %0, ptr %2, align 8, !tbaa !3
  %3 = load ptr, ptr %2, align 8, !tbaa !3
  %4 = call i32 @PyModule_AddFunctions(ptr noundef %3, ptr noundef @test_methods)
  ret i32 %4
}

declare i32 @PyModule_AddFunctions(ptr noundef, ptr noundef) #1

; Function Attrs: nounwind uwtable
define internal ptr @_testcapi_pyfile_newstdprinter(ptr noundef %0, ptr noundef %1) #0 {
  %3 = alloca ptr, align 8
  %4 = alloca ptr, align 8
  %5 = alloca ptr, align 8
  %6 = alloca i32, align 4
  store ptr %0, ptr %3, align 8, !tbaa !3
  store ptr %1, ptr %4, align 8, !tbaa !3
  call void @llvm.lifetime.start.p0(i64 8, ptr %5) #3
  store ptr null, ptr %5, align 8, !tbaa !3
  call void @llvm.lifetime.start.p0(i64 4, ptr %6) #3
  %7 = load ptr, ptr %4, align 8, !tbaa !3
  %8 = call i32 @PyLong_AsInt(ptr noundef %7)
  store i32 %8, ptr %6, align 4, !tbaa !8
  %9 = load i32, ptr %6, align 4, !tbaa !8
  %10 = icmp eq i32 %9, -1
  br i1 %10, label %11, label %15

11:                                               ; preds = %2
  %12 = call ptr @PyErr_Occurred()
  %13 = icmp ne ptr %12, null
  br i1 %13, label %14, label %15

14:                                               ; preds = %11
  br label %19

15:                                               ; preds = %11, %2
  %16 = load ptr, ptr %3, align 8, !tbaa !3
  %17 = load i32, ptr %6, align 4, !tbaa !8
  %18 = call ptr @_testcapi_pyfile_newstdprinter_impl(ptr noundef %16, i32 noundef %17)
  store ptr %18, ptr %5, align 8, !tbaa !3
  br label %19

19:                                               ; preds = %15, %14
  %20 = load ptr, ptr %5, align 8, !tbaa !3
  call void @llvm.lifetime.end.p0(i64 4, ptr %6) #3
  call void @llvm.lifetime.end.p0(i64 8, ptr %5) #3
  ret ptr %20
}

; Function Attrs: nounwind uwtable
define internal ptr @_testcapi_py_fopen(ptr noundef %0, ptr noundef %1, i64 noundef %2) #0 {
  %4 = alloca ptr, align 8
  %5 = alloca ptr, align 8
  %6 = alloca i64, align 8
  %7 = alloca ptr, align 8
  %8 = alloca ptr, align 8
  %9 = alloca ptr, align 8
  %10 = alloca i64, align 8
  store ptr %0, ptr %4, align 8, !tbaa !3
  store ptr %1, ptr %5, align 8, !tbaa !10
  store i64 %2, ptr %6, align 8, !tbaa !12
  call void @llvm.lifetime.start.p0(i64 8, ptr %7) #3
  store ptr null, ptr %7, align 8, !tbaa !3
  call void @llvm.lifetime.start.p0(i64 8, ptr %8) #3
  call void @llvm.lifetime.start.p0(i64 8, ptr %9) #3
  call void @llvm.lifetime.start.p0(i64 8, ptr %10) #3
  %11 = load ptr, ptr %5, align 8, !tbaa !10
  %12 = load i64, ptr %6, align 8, !tbaa !12
  %13 = call i32 (ptr, i64, ptr, ...) @_PyArg_ParseStack(ptr noundef %11, i64 noundef %12, ptr noundef @.str.3, ptr noundef %8, ptr noundef %9, ptr noundef %10)
  %14 = icmp ne i32 %13, 0
  br i1 %14, label %16, label %15

15:                                               ; preds = %3
  br label %22

16:                                               ; preds = %3
  %17 = load ptr, ptr %4, align 8, !tbaa !3
  %18 = load ptr, ptr %8, align 8, !tbaa !3
  %19 = load ptr, ptr %9, align 8, !tbaa !14
  %20 = load i64, ptr %10, align 8, !tbaa !12
  %21 = call ptr @_testcapi_py_fopen_impl(ptr noundef %17, ptr noundef %18, ptr noundef %19, i64 noundef %20)
  store ptr %21, ptr %7, align 8, !tbaa !3
  br label %22

22:                                               ; preds = %16, %15
  %23 = load ptr, ptr %7, align 8, !tbaa !3
  call void @llvm.lifetime.end.p0(i64 8, ptr %10) #3
  call void @llvm.lifetime.end.p0(i64 8, ptr %9) #3
  call void @llvm.lifetime.end.p0(i64 8, ptr %8) #3
  call void @llvm.lifetime.end.p0(i64 8, ptr %7) #3
  ret ptr %23
}

; Function Attrs: nocallback nofree nosync nounwind willreturn memory(argmem: readwrite)
declare void @llvm.lifetime.start.p0(i64 immarg, ptr captures(none)) #2

declare i32 @PyLong_AsInt(ptr noundef) #1

declare ptr @PyErr_Occurred() #1

; Function Attrs: nounwind uwtable
define internal ptr @_testcapi_pyfile_newstdprinter_impl(ptr noundef %0, i32 noundef %1) #0 {
  %3 = alloca ptr, align 8
  %4 = alloca i32, align 4
  store ptr %0, ptr %3, align 8, !tbaa !3
  store i32 %1, ptr %4, align 4, !tbaa !8
  %5 = load i32, ptr %4, align 4, !tbaa !8
  %6 = call ptr @PyFile_NewStdPrinter(i32 noundef %5)
  ret ptr %6
}

; Function Attrs: nocallback nofree nosync nounwind willreturn memory(argmem: readwrite)
declare void @llvm.lifetime.end.p0(i64 immarg, ptr captures(none)) #2

declare ptr @PyFile_NewStdPrinter(i32 noundef) #1

declare i32 @_PyArg_ParseStack(ptr noundef, i64 noundef, ptr noundef, ...) #1

; Function Attrs: nounwind uwtable
define internal ptr @_testcapi_py_fopen_impl(ptr noundef %0, ptr noundef %1, ptr noundef %2, i64 noundef %3) #0 {
  %5 = alloca ptr, align 8
  %6 = alloca ptr, align 8
  %7 = alloca ptr, align 8
  %8 = alloca ptr, align 8
  %9 = alloca i64, align 8
  %10 = alloca ptr, align 8
  %11 = alloca i32, align 4
  %12 = alloca [256 x i8], align 16
  %13 = alloca i64, align 8
  store ptr %0, ptr %6, align 8, !tbaa !3
  store ptr %1, ptr %7, align 8, !tbaa !3
  store ptr %2, ptr %8, align 8, !tbaa !14
  store i64 %3, ptr %9, align 8, !tbaa !12
  br label %14

14:                                               ; preds = %4
  %15 = load ptr, ptr %7, align 8, !tbaa !3
  %16 = icmp eq ptr %15, @_Py_NoneStruct
  br i1 %16, label %17, label %18

17:                                               ; preds = %14
  store ptr null, ptr %7, align 8, !tbaa !3
  br label %18

18:                                               ; preds = %17, %14
  br label %19

19:                                               ; preds = %18
  call void @llvm.lifetime.start.p0(i64 8, ptr %10) #3
  %20 = load ptr, ptr %7, align 8, !tbaa !3
  %21 = load ptr, ptr %8, align 8, !tbaa !14
  %22 = call ptr @Py_fopen(ptr noundef %20, ptr noundef %21)
  store ptr %22, ptr %10, align 8, !tbaa !16
  %23 = load ptr, ptr %10, align 8, !tbaa !16
  %24 = icmp eq ptr %23, null
  br i1 %24, label %25, label %26

25:                                               ; preds = %19
  store ptr null, ptr %5, align 8
  store i32 1, ptr %11, align 4
  br label %35

26:                                               ; preds = %19
  call void @llvm.lifetime.start.p0(i64 256, ptr %12) #3
  call void @llvm.lifetime.start.p0(i64 8, ptr %13) #3
  %27 = getelementptr inbounds [256 x i8], ptr %12, i64 0, i64 0
  %28 = load ptr, ptr %10, align 8, !tbaa !16
  %29 = call i64 @fread(ptr noundef %27, i64 noundef 1, i64 noundef 256, ptr noundef %28)
  store i64 %29, ptr %13, align 8, !tbaa !12
  %30 = load ptr, ptr %10, align 8, !tbaa !16
  %31 = call i32 @Py_fclose(ptr noundef %30)
  %32 = getelementptr inbounds [256 x i8], ptr %12, i64 0, i64 0
  %33 = load i64, ptr %13, align 8, !tbaa !12
  %34 = call ptr @PyBytes_FromStringAndSize(ptr noundef %32, i64 noundef %33)
  store ptr %34, ptr %5, align 8
  store i32 1, ptr %11, align 4
  call void @llvm.lifetime.end.p0(i64 8, ptr %13) #3
  call void @llvm.lifetime.end.p0(i64 256, ptr %12) #3
  br label %35

35:                                               ; preds = %26, %25
  call void @llvm.lifetime.end.p0(i64 8, ptr %10) #3
  %36 = load ptr, ptr %5, align 8
  ret ptr %36
}

declare ptr @Py_fopen(ptr noundef, ptr noundef) #1

declare i64 @fread(ptr noundef, i64 noundef, i64 noundef, ptr noundef) #1

declare i32 @Py_fclose(ptr noundef) #1

declare ptr @PyBytes_FromStringAndSize(ptr noundef, i64 noundef) #1


!llvm.module.flags = !{!0, !1, !2}

!0 = !{i32 1, !"wchar_size", i32 4}
!1 = !{i32 8, !"PIC Level", i32 2}
!2 = !{i32 7, !"uwtable", i32 2}
!3 = !{!4, !4, i64 0}
!4 = !{!"p1 _ZTS7_object", !5, i64 0}
!5 = !{!"any pointer", !6, i64 0}
!6 = !{!"omnipotent char", !7, i64 0}
!7 = !{!"Simple C/C++ TBAA"}
!8 = !{!9, !9, i64 0}
!9 = !{!"int", !6, i64 0}
!10 = !{!11, !11, i64 0}
!11 = !{!"p2 _ZTS7_object", !5, i64 0}
!12 = !{!13, !13, i64 0}
!13 = !{!"long", !6, i64 0}
!14 = !{!15, !15, i64 0}
!15 = !{!"p1 omnipotent char", !5, i64 0}
!16 = !{!17, !17, i64 0}
!17 = !{!"p1 _ZTS8_IO_FILE", !5, i64 0}
